(dp0
S'RW12'
p1
(lp2
cnumpy.core.multiarray
scalar
p3
(cnumpy
dtype
p4
(S'f8'
p5
I0
I1
tp6
Rp7
(I3
S'<'
p8
NNNI-1
I-1
I0
tp9
bS'j\x1ft\x1f\xef\x16U\xc0'
p10
tp11
Rp12
aF34.06660671783984
asS'RW13'
p13
(lp14
g3
(g7
S'N\xae>x\xed\x12U\xc0'
p15
tp16
Rp17
aF34.028759636992795
asS'RW10'
p18
(lp19
g3
(g7
S'<\xc9\x80:3\x18U\xc0'
p20
tp21
Rp22
aF34.03395357578803
asS'AP07B'
p23
(lp24
g3
(g7
S'2\x9e\t}\xff\x11U\xc0'
p25
tp26
Rp27
aF34.11348073562003
asS'RW16'
p28
(lp29
g3
(g7
S'\xad\x974\xa7\x12\x16U\xc0'
p30
tp31
Rp32
aF34.055205083410186
asS'RW17'
p33
(lp34
g3
(g7
S'M\xb3\xc9\xff\x8b\x14U\xc0'
p35
tp36
Rp37
aF34.01135641074012
asS'Nicholson 01'
p38
(lp39
g3
(g7
S'\t\x8cL\xf6\x98 U\xc0'
p40
tp41
Rp42
aF34.0634408409768
asS'RW19'
p43
(lp44
g3
(g7
S'=,is\x83\x17U\xc0'
p45
tp46
Rp47
aF34.084164587587736
asS'Kell 01'
p48
(lp49
g3
(g7
S'\xb9?\xe4/\xa1\x1fU\xc0'
p50
tp51
Rp52
aF34.06884694653977
asS'DUNWOODY'
p53
(lp54
g3
(g7
S'\xb3\x13\xc6d\x9d\x15U\xc0'
p55
tp56
Rp57
aF33.935120034670966
asS'Powers Ferry 01'
p58
(lp59
g3
(g7
S'HO?\x15\xe0\x1fU\xc0'
p60
tp61
Rp62
aF33.941443480280725
asS'Post Oak 01'
p63
(lp64
g3
(g7
S'\x93\x13\xabbY\x1cU\xc0'
p65
tp66
Rp67
aF34.064284960492174
asS'AP07A'
p68
(lp69
g3
(g7
S'\xb9AX\xc3\xff\x11U\xc0'
p70
tp71
Rp72
aF34.085557797240355
asS'Gritters 01'
p73
(lp74
g3
(g7
S'N\x04\xf8\x01\xda U\xc0'
p75
tp76
Rp77
aF34.02006841520271
asS'WINTERS CHAPEL'
p78
(lp79
g3
(g7
S'%\xde\xfd\xa6\xb4\x11U\xc0'
p80
tp81
Rp82
aF33.94794080473137
asS'Roswell 02'
p83
(lp84
g3
(g7
S'\xb7\x82\xc4\x0bc\x1bU\xc0'
p85
tp86
Rp87
aF33.99608642600916
asS'Elizabeth 02'
p88
(lp89
g3
(g7
S'\xe9\x12\x90\xebm!U\xc0'
p90
tp91
Rp92
aF34.00596259164882
asS'Roswell 01'
p93
(lp94
g3
(g7
S'\xf2e1V.\x1aU\xc0'
p95
tp96
Rp97
aF34.016672812037356
asS'AP10'
p98
(lp99
g3
(g7
S'D\x1b\x13\xdbO\x13U\xc0'
p100
tp101
Rp102
aF34.09069595816906
asS'Chattahoochee 01'
p103
(lp104
g3
(g7
S'\xc2N\x94\xaaG\x1dU\xc0'
p105
tp106
Rp107
aF33.89851299975591
asS'RW07A'
p108
(lp109
g3
(g7
S'\xa5:k\xb0\xc6\x14U\xc0'
p110
tp111
Rp112
aF34.02813342903172
asS'ASHFORD PARK ELEM'
p113
(lp114
g3
(g7
S'\xb4\xed*gi\x14U\xc0'
p115
tp116
Rp117
aF33.87037764678788
asS'CHAMBLEE'
p118
(lp119
g3
(g7
S'\x923\xb5\x1fi\x13U\xc0'
p120
tp121
Rp122
aF33.8925462823805
asS'Palmer 01'
p123
(lp124
g3
(g7
S'\xfbgw\x03h#U\xc0'
p125
tp126
Rp127
aF34.051117815471024
asS'LAKESIDE HIGH'
p128
(lp129
g3
(g7
S'\xf3\xb2\xa3p\x1f\x12U\xc0'
p130
tp131
Rp132
aF33.8457072336699
asS'JC16'
p133
(lp134
g3
(g7
S'\x14\x06\xb6u\xb2\x10U\xc0'
p135
tp136
Rp137
aF34.029382901102174
asS'Wileo 01'
p138
(lp139
g3
(g7
S'D+\xe7\x19\x12\x1bU\xc0'
p140
tp141
Rp142
aF34.05209828193263
asS'JC13A'
p143
(lp144
g3
(g7
S'Rd8\x1a\xe8\x0fU\xc0'
p145
tp146
Rp147
aF34.00427217465927
asS'JC15'
p148
(lp149
g3
(g7
S'\xc9\x1aW\xd1V\x0fU\xc0'
p150
tp151
Rp152
aF34.046423596572964
asS'RW09'
p153
(lp154
g3
(g7
S'\x0f\x91F\xa5f\x19U\xc0'
p155
tp156
Rp157
aF34.08676577171719
asS'RW08'
p158
(lp159
g3
(g7
S'\x8f\x1c\xd9"\x90\x16U\xc0'
p160
tp161
Rp162
aF34.04095015429088
asS'JC10'
p163
(lp164
g3
(g7
S'M\xcb/\x0cq\x0eU\xc0'
p165
tp166
Rp167
aF34.052379227348844
asS'JC11'
p168
(lp169
g3
(g7
S'V\xca\x84\x06\x7f\rU\xc0'
p170
tp171
Rp172
aF34.025502941835306
asS'RW05'
p173
(lp174
g3
(g7
S'\xeb\x9a\xee\xc1\xb6\x14U\xc0'
p175
tp176
Rp177
aF34.050837085873574
asS'RW04'
p178
(lp179
g3
(g7
S'"\xa2\x0b\x92\x18\x14U\xc0'
p180
tp181
Rp182
aF34.00012920108597
asS'HENDERSON MILL ELEM'
p183
(lp184
g3
(g7
S'\xe0TXm\xc0\x10U\xc0'
p185
tp186
Rp187
aF33.86551196815605
asS'RW06'
p188
(lp189
g3
(g7
S'\xd9N\xa8>\x04\x13U\xc0'
p190
tp191
Rp192
aF34.018017307884904
asS'RW01'
p193
(lp194
g3
(g7
S'\x9a\xa2\xa9}\xf5\x18U\xc0'
p195
tp196
Rp197
aF34.04494643778876
asS'EVANSDALE ELEM'
p198
(lp199
g3
(g7
S'\xf6F\x8c\x9c\xa8\x0fU\xc0'
p200
tp201
Rp202
aF33.88146681896646
asS'RW03'
p203
(lp204
g3
(g7
S'\xe4\xc8\xc0G\x17\x16U\xc0'
p205
tp206
Rp207
aF34.01924335254106
asS'SS15B'
p208
(lp209
g3
(g7
S'r\xce\xc2y\xd4\x15U\xc0'
p210
tp211
Rp212
aF34.00172458605987
asS'AP12C'
p213
(lp214
g3
(g7
S'\xcb\xe3\xf4c\x06\x12U\xc0'
p215
tp216
Rp217
aF34.07252785411939
asS'ML024'
p218
(lp219
g3
(g7
S'\xf3v\x1dp\xe6\x13U\xc0'
p220
tp221
Rp222
aF34.12087942636753
asS'ML022'
p223
(lp224
g3
(g7
S'\xf8Zr\x02\x98\x15U\xc0'
p225
tp226
Rp227
aF34.13584014231325
asS'ML023'
p228
(lp229
g3
(g7
S'\xf3\x86Z0\x9e\x15U\xc0'
p230
tp231
Rp232
aF34.11583697636334
asS'ML021'
p233
(lp234
g3
(g7
S'\xa4\xf9P5\xe3\x15U\xc0'
p235
tp236
Rp237
aF34.15231406819897
asS'LIVSEY ELEM'
p238
(lp239
g3
(g7
S'A\x02\xa9\xc0n\x0eU\xc0'
p240
tp241
Rp242
aF33.876357627812894
asS'SS02B'
p243
(lp244
g3
(g7
S'm\xbaJ\xcb/\x18U\xc0'
p245
tp246
Rp247
aF33.94607886257631
asS'MIDVALE ROAD'
p248
(lp249
g3
(g7
S'8\xe7\x88\xb6\xce\x0fU\xc0'
p250
tp251
Rp252
aF33.86081110387227
asS'KINGSLEY ELEM'
p253
(lp254
g3
(g7
S'C\x93\x0eM\xc0\x12U\xc0'
p255
tp256
Rp257
aF33.951244155600655
asS'Simpson 01'
p258
(lp259
g3
(g7
S'{\xf5\xde\x19z\x1eU\xc0'
p260
tp261
Rp262
aF34.033099031614746
asS'AP06'
p263
(lp264
g3
(g7
S'`!\xc6v\x81\x14U\xc0'
p265
tp266
Rp267
aF34.08915776636336
asS'AP05'
p268
(lp269
g3
(g7
S'\x9c\xaer\xa8o\x0eU\xc0'
p270
tp271
Rp272
aF34.08451455825366
asS'AP03'
p273
(lp274
g3
(g7
S'=\xdc0\x94\xd6\x14U\xc0'
p275
tp276
Rp277
aF34.03936739892832
asS'Chestnut Ridge 01'
p278
(lp279
g3
(g7
S'\xfe=\\k\x13\x1cU\xc0'
p280
tp281
Rp282
aF34.00921115457352
asS'OAKCLIFF ELEM'
p283
(lp284
g3
(g7
S'\x8f\xa9f\xaf\xca\x10U\xc0'
p285
tp286
Rp287
aF33.89820898219719
asS'BRIARWOOD'
p288
(lp289
g3
(g7
S'z\xe8F\x1e7\x15U\xc0'
p290
tp291
Rp292
aF33.85006322926018
asS'MT. VERNON WEST'
p293
(lp294
g3
(g7
S'\x9ar\xd6\xee\xd4\x14U\xc0'
p295
tp296
Rp297
aF33.942331584982455
asS'BROOKHAVEN'
p298
(lp299
g3
(g7
S"\xe4'\x9b\xd4h\x15U\xc0"
p300
tp301
Rp302
aF33.862029487026604
asS'NORTH PEACHTREE'
p303
(lp304
g3
(g7
S'\xebI\xd8\x0b\xaf\x11U\xc0'
p305
tp306
Rp307
aF33.93404588777125
asS'JC01'
p308
(lp309
g3
(g7
S'z\xd2\x0f\xb1\x14\tU\xc0'
p310
tp311
Rp312
aF34.04358815376846
asS'JC02'
p313
(lp314
g3
(g7
S'\x13\xfc\x99\xa1\xa1\nU\xc0'
p315
tp316
Rp317
aF34.054193812173445
asS'JC05'
p318
(lp319
g3
(g7
S'\x80*]8\xdb\x0cU\xc0'
p320
tp321
Rp322
aF34.0620494310115
asS'JC07'
p323
(lp324
g3
(g7
S'P\x90\x16\nT\x0cU\xc0'
p325
tp326
Rp327
aF34.03774070522847
asS'JC06'
p328
(lp329
g3
(g7
S'Mu\x91\x89}\x0bU\xc0'
p330
tp331
Rp332
aF34.02732141434368
asS'JC09'
p333
(lp334
g3
(g7
S'^W\xa7\x90\x83\rU\xc0'
p335
tp336
Rp337
aF34.0424057251493
asS'JC08'
p338
(lp339
g3
(g7
S'-PPS!\rU\xc0'
p340
tp341
Rp342
aF34.052882721288036
asS'SS20'
p343
(lp344
g3
(g7
S'ND\xd8;A\x16U\xc0'
p345
tp346
Rp347
aF33.97298519415515
asS'ML012'
p348
(lp349
g3
(g7
S'rbX\xca\x9c\x16U\xc0'
p350
tp351
Rp352
aF34.087269055928985
asS'Timber Ridge 01'
p353
(lp354
g3
(g7
S'\xd7\x95\xbb\xb6Y\x19U\xc0'
p355
tp356
Rp357
aF33.9921874370998
asS'ASHFORD PARKSIDE'
p358
(lp359
g3
(g7
S'a6\xc4M[\x15U\xc0'
p360
tp361
Rp362
aF33.896373522211405
asS'SS25'
p363
(lp364
g3
(g7
S'\x0f86\x9a\xa4\x11U\xc0'
p365
tp366
Rp367
aF33.97006945621906
asS'SS26'
p368
(lp369
g3
(g7
S'a\xd1`B\xe3\x16U\xc0'
p370
tp371
Rp372
aF33.96472539615695
asS'ML072'
p373
(lp374
g3
(g7
S'\x08(Kc8\x11U\xc0'
p375
tp376
Rp377
aF34.166820584745686
asS'RW21'
p378
(lp379
g3
(g7
S'\xc38y#\x0c\x12U\xc0'
p380
tp381
Rp382
aF33.98519767491449
asS'KITTREDGE ELEM'
p383
(lp384
g3
(g7
S'\xb0\xca\xa0\x19r\x14U\xc0'
p385
tp386
Rp387
aF33.90643721204365
asS'RW20'
p388
(lp389
g3
(g7
S'\xf0\xbd\xbfRr\x13U\xc0'
p390
tp391
Rp392
aF33.99375297663045
asS'Sandy Plains 01'
p393
(lp394
g3
(g7
S'\x0egcp.\x1eU\xc0'
p395
tp396
Rp397
aF34.0197898102849
asS'SS19A'
p398
(lp399
g3
(g7
S'\xf0\x9b\xe4\xbfy\x17U\xc0'
p400
tp401
Rp402
aF33.97442687695088
asS'AP12B'
p403
(lp404
g3
(g7
S'x\xaa\xef(\xf1\x0fU\xc0'
p405
tp406
Rp407
aF34.08621895715131
asS'AP12A'
p408
(lp409
g3
(g7
S'\x0b\xda\xe7my\x10U\xc0'
p410
tp411
Rp412
aF34.06997057238153
asS'SS19B'
p413
(lp414
g3
(g7
S'\x12\x1a\xe6\x81\xf3\x17U\xc0'
p415
tp416
Rp417
aF33.962347126457864
asS'MP01'
p418
(lp419
g3
(g7
S'=\xd6\x80\xb5g\x1aU\xc0'
p420
tp421
Rp422
aF34.08280741789271
asS'SS07B'
p423
(lp424
g3
(g7
S'Y\x1b\xc8\xbf\xcc\x17U\xc0'
p425
tp426
Rp427
aF33.92245798387937
asS'SS07C'
p428
(lp429
g3
(g7
S'\xad)\x9a\x10\xd2\x17U\xc0'
p430
tp431
Rp432
aF33.91509973804688
asS'SS31'
p433
(lp434
g3
(g7
S'\xa7F\x8f"\xc3\x18U\xc0'
p435
tp436
Rp437
aF33.91722089137607
asS'SS07A'
p438
(lp439
g3
(g7
S'\x9cO\xe3D\xe0\x17U\xc0'
p440
tp441
Rp442
aF33.93107726940012
asS'DRESDEN ELEM'
p443
(lp444
g3
(g7
S'\xee\xc9\x95\x8ec\x13U\xc0'
p445
tp446
Rp447
aF33.86144520612662
asS'AP13'
p448
(lp449
g3
(g7
S'G\xd9\x89W0\x10U\xc0'
p450
tp451
Rp452
aF34.052386594375356
asS'ML01B'
p453
(lp454
g3
(g7
S'V\x1fO|\xb4\x18U\xc0'
p455
tp456
Rp457
aF34.11182979234534
asS'Sope Creek 02'
p458
(lp459
g3
(g7
S'\x9e\xb0\xb2\xa3\xdd\x1cU\xc0'
p460
tp461
Rp462
aF33.9217722991492
asS'Sope Creek 03'
p463
(lp464
g3
(g7
S'\x10\x9cx\x83\x83\x1bU\xc0'
p465
tp466
Rp467
aF33.933625738652935
asS'BRIARLAKE ELEM'
p468
(lp469
g3
(g7
S'\x8d8(\x9e\x1a\x11U\xc0'
p470
tp471
Rp472
aF33.8459653161265
asS'MIDVALE ELEM'
p473
(lp474
g3
(g7
S'se\x151\xa3\x0eU\xc0'
p475
tp476
Rp477
aF33.86293512154496
asS'Addison 01'
p478
(lp479
g3
(g7
S'\t\x9f\x8fl\x10 U\xc0'
p480
tp481
Rp482
aF34.02408355408694
asS'DORAVILLE NORTH'
p483
(lp484
g3
(g7
S'\x0c\x9e\xf82y\x11U\xc0'
p485
tp486
Rp487
aF33.911408286436604
asS'DORAVILLE SOUTH'
p488
(lp489
g3
(g7
S'\xdc\x86~\xbf\xaa\x11U\xc0'
p490
tp491
Rp492
aF33.89209523596557
asS'SILVER LAKE'
p493
(lp494
g3
(g7
S'.\xcc\xb5i\xb3\x15U\xc0'
p495
tp496
Rp497
aF33.87097336438361
asS'CHESNUT ELEM'
p498
(lp499
g3
(g7
S'XG\xb6\x1c\xbb\x12U\xc0'
p500
tp501
Rp502
aF33.924086133541
asS'Elizabeth 03'
p503
(lp504
g3
(g7
S'\x90:\x03\xbc\x1c!U\xc0'
p505
tp506
Rp507
aF33.99162675367851
asS'Marietta 6A'
p508
(lp509
g3
(g7
S'\xb8\x18\xec6Z\x1eU\xc0'
p510
tp511
Rp512
aF33.92961868131067
asS'Marietta 6B'
p513
(lp514
g3
(g7
S'\xab\xf1E\x97| U\xc0'
p515
tp516
Rp517
aF33.98827061781108
asS'DUNWOODY HIGH'
p518
(lp519
g3
(g7
S'\xf8-\x16\xce\xd0\x13U\xc0'
p520
tp521
Rp522
aF33.94168170241337
asS'SS02A'
p523
(lp524
g3
(g7
S'\xc6\xfcs*\x15\x18U\xc0'
p525
tp526
Rp527
aF33.95184752430476
asS'SS06'
p528
(lp529
g3
(g7
S'\xa4\xed\x0c\xcfE\x19U\xc0'
p530
tp531
Rp532
aF33.92463825084142
asS'RW07B'
p533
(lp534
g3
(g7
S'+\x04"\xcb\xcd\x14U\xc0'
p535
tp536
Rp537
aF34.03268712506814
asS'TUCKER'
p538
(lp539
g3
(g7
S'?qM\xc9:\rU\xc0'
p540
tp541
Rp542
aF33.86732069804683
asS'Rocky Mountain 01'
p543
(lp544
g3
(g7
S'\xae\x80\x9c:$\x1fU\xc0'
p545
tp546
Rp547
aF34.05127064762986
asS'McCleskey 01'
p548
(lp549
g3
(g7
S'\x1c\x11\xf81\x99 U\xc0'
p550
tp551
Rp552
aF34.0478504680004
asS'ML071'
p553
(lp554
g3
(g7
S'*\xc7\xa3\x8e,\x11U\xc0'
p555
tp556
Rp557
aF34.14411868763012
asS'Hightower 01'
p558
(lp559
g3
(g7
S'1\x8d\xb2\xd2\xd4\x1bU\xc0'
p560
tp561
Rp562
aF34.0208458714882
asS'SS04'
p563
(lp564
g3
(g7
S'\xf9\x1c\xa5`Z\x17U\xc0'
p565
tp566
Rp567
aF33.94390163642873
asS'SS05'
p568
(lp569
g3
(g7
S'\x8ap\xa9\xd9\x90\x19U\xc0'
p570
tp571
Rp572
aF33.93581399766035
asS'SS03'
p573
(lp574
g3
(g7
S'\xc1\xb8\xb4\xee}\x18U\xc0'
p575
tp576
Rp577
aF33.93669551254185
asS'Elizabeth 04'
p578
(lp579
g3
(g7
S'\xab\xf1E\x97| U\xc0'
p580
tp581
Rp582
aF33.98827061781108
asS'Marietta 5B'
p583
(lp584
g3
(g7
S'\xf4+\xb1\xfd\x1a#U\xc0'
p585
tp586
Rp587
aF33.99272027132525
asS'MT. VERNON EAST'
p588
(lp589
g3
(g7
S'(\x81\x83\x0c\x1b\x14U\xc0'
p590
tp591
Rp592
aF33.95820138222896
asS'ML06B'
p593
(lp594
g3
(g7
S'\x08g\x0cL\xcb\x10U\xc0'
p595
tp596
Rp597
aF34.11379077534359
asS'ML06A'
p598
(lp599
g3
(g7
S'\x9b\x88&Q\xe4\x10U\xc0'
p600
tp601
Rp602
aF34.096990223029785
asS'HAWTHORNE ELEM'
p603
(lp604
g3
(g7
S'\xf9\xdbE/\xfc\x11U\xc0'
p605
tp606
Rp607
aF33.863309628343615
asS'EMBRY HILLS'
p608
(lp609
g3
(g7
S've\xda\xb6\x17\x0fU\xc0'
p610
tp611
Rp612
aF33.88551364030826
asS'Dodgen 01'
p613
(lp614
g3
(g7
S'\t3q\xdbE\x1cU\xc0'
p615
tp616
Rp617
aF33.98661903226402
asS'SS22'
p618
(lp619
g3
(g7
S'f\xe3\xd4\xbcm\x17U\xc0'
p620
tp621
Rp622
aF33.98928270842732
asS'AP02B'
p623
(lp624
g3
(g7
S'\xd3\x01\xd5,\xe5\x13U\xc0'
p625
tp626
Rp627
aF34.048322677115955
asS'Elizabeth 05'
p628
(lp629
g3
(g7
S'\x97\xf67\xf8\xf2\x1eU\xc0'
p630
tp631
Rp632
aF34.00387025397339
asS'Eastside 02'
p633
(lp634
g3
(g7
S'\x99;o\xc3\x1a\x1eU\xc0'
p635
tp636
Rp637
aF33.94972699935225
asS'WARREN TECH'
p638
(lp639
g3
(g7
S'bWr\x848\x11U\xc0'
p640
tp641
Rp642
aF33.879626591873524
asS'JC13B'
p643
(lp644
g3
(g7
S'\xc5\x02\xe3\xaf\xcf\x0eU\xc0'
p645
tp646
Rp647
aF34.00873034627449
asS'Marietta 7A'
p648
(lp649
g3
(g7
S'\x86\xcf\x01\xad\x19\x1eU\xc0'
p650
tp651
Rp652
aF33.92262422107677
asS'Sope Creek 01'
p653
(lp654
g3
(g7
S'-~\xe3\x17\xdb\x1cU\xc0'
p655
tp656
Rp657
aF33.95661142736836
asS'AP04A'
p658
(lp659
g3
(g7
S'\x17G}\x9c\n\x16U\xc0'
p660
tp661
Rp662
aF34.08026372482934
asS'AP04B'
p663
(lp664
g3
(g7
S'Hd@H\xcb\x15U\xc0'
p665
tp666
Rp667
aF34.088432588979586
asS'AP022'
p668
(lp669
g3
(g7
S'f\xa0^\xaa\xad\x13U\xc0'
p670
tp671
Rp672
aF34.062802193941806
asS'AP021'
p673
(lp674
g3
(g7
S'\xb36h_\n\x14U\xc0'
p675
tp676
Rp677
aF34.07928972880382
asS'SS11A'
p678
(lp679
g3
(g7
S'r\x85\x8c8\xd4\x17U\xc0'
p680
tp681
Rp682
aF33.90226264845395
asS'SS11C'
p683
(lp684
g3
(g7
S'&\x14\x0e>\x00\x18U\xc0'
p685
tp686
Rp687
aF33.91153686396142
asS'SS11B'
p688
(lp689
g3
(g7
S'$\xc3\x1e\x18\x88\x18U\xc0'
p690
tp691
Rp692
aF33.90462214885319
asS'JC03B'
p693
(lp694
g3
(g7
S'\x07\x84f\xe6\xeb\x0bU\xc0'
p695
tp696
Rp697
aF34.06316012085575
asS'JC03A'
p698
(lp699
g3
(g7
S'Mn\xfe\x17q\x0cU\xc0'
p700
tp701
Rp702
aF34.066230628710585
asS'SS12'
p703
(lp704
g3
(g7
S'\xa4I\x158\xf4\x16U\xc0'
p705
tp706
Rp707
aF33.89808792274616
asS'SS17'
p708
(lp709
g3
(g7
S'4\xbdp\x14\xb5\x14U\xc0'
p710
tp711
Rp712
aF33.98095444208675
asS'SS16'
p713
(lp714
g3
(g7
S'\xa9{\xcd+\x19\x1bU\xc0'
p715
tp716
Rp717
aF33.92047460219607
asS'ML03'
p718
(lp719
g3
(g7
S'\x9a\xc8\xa2\x1f\xe8\x13U\xc0'
p720
tp721
Rp722
aF34.14979915164411
asS'GEORGETOWN SQUARE'
p723
(lp724
g3
(g7
S'\x9c\xc7\x9at7\x15U\xc0'
p725
tp726
Rp727
aF33.92594285829078
asS'ML07A'
p728
(lp729
g3
(g7
S'\xd3\xa0e\xd0\x18\x13U\xc0'
p730
tp731
Rp732
aF34.174295926832
asS'Eastside 01'
p733
(lp734
g3
(g7
S'\xba\xc0\xeaZX\x1cU\xc0'
p735
tp736
Rp737
aF33.96723818662497
asS'SKYLAND'
p738
(lp739
g3
(g7
S'\x15\xd2\xe9\x1c~\x14U\xc0'
p740
tp741
Rp742
aF33.85798883203417
asS'PLEASANTDALE ELEM'
p743
(lp744
g3
(g7
S'=\x803\xd0\xf5\x0eU\xc0'
p745
tp746
Rp747
aF33.89302285849031
asS'Mabry 01'
p748
(lp749
g3
(g7
S'w\xb4\xe7\xe6\xbd\x1dU\xc0'
p750
tp751
Rp752
aF34.05393041070057
asS'ML011'
p753
(lp754
g3
(g7
S'Hd@H\xcb\x15U\xc0'
p755
tp756
Rp757
aF34.088432588979586
asS'AP14'
p758
(lp759
g3
(g7
S'\xc9\x1aW\xd1V\x0fU\xc0'
p760
tp761
Rp762
aF34.046423596572964
asS'SS18B'
p763
(lp764
g3
(g7
S'{\x00\x18d"\x19U\xc0'
p765
tp766
Rp767
aF33.95189868069281
asS'SS18A'
p768
(lp769
g3
(g7
S'\xf29l\xc48\x19U\xc0'
p770
tp771
Rp772
aF33.946963127012545
asS'AUSTIN'
p773
(lp774
g3
(g7
S'=\xe9\xaaxk\x15U\xc0'
p775
tp776
Rp777
aF33.96192946894058
asS'JC04B'
p778
(lp779
g3
(g7
S'\xdba@8\x81\rU\xc0'
p780
tp781
Rp782
aF34.068531179245575
asS'JC04A'
p783
(lp784
g3
(g7
S'\xb1\xc1A\xdc}\x0cU\xc0'
p785
tp786
Rp787
aF34.07791158520452
asS'JC14'
p788
(lp789
g3
(g7
S':i\x8b\xe6S\x0fU\xc0'
p790
tp791
Rp792
aF34.0254078678164
asS'RW11A'
p793
(lp794
g3
(g7
S'*\xa25\xaf\xe5\x17U\xc0'
p795
tp796
Rp797
aF34.003749891144075
asS'TILLY MILL ROAD'
p798
(lp799
g3
(g7
S'\xa6{\xf5\x93\xb3\x12U\xc0'
p800
tp801
Rp802
aF33.93743889188289
asS'JC12'
p803
(lp804
g3
(g7
S'\x99\xb5E\x83O\rU\xc0'
p805
tp806
Rp807
aF34.00834360476305
asS'Dickerson 01'
p808
(lp809
g3
(g7
S'a\x93\x8e\x10\xc0\x1aU\xc0'
p810
tp811
Rp812
aF33.97890270784593
asS'East Piedmont 01'
p813
(lp814
g3
(g7
S'\xf4+\xb1\xfd\x1a#U\xc0'
p815
tp816
Rp817
aF33.99272027132525
asS'SS08B'
p818
(lp819
g3
(g7
S'\x9cO!+?\x17U\xc0'
p820
tp821
Rp822
aF33.923810353614186
asS'Murdock 01'
p823
(lp824
g3
(g7
S'\xd5\xf7\x98\xc6g\x1dU\xc0'
p825
tp826
Rp827
aF33.99901698327501
asS'Lasssiter 01'
p828
(lp829
g3
(g7
S'\r"\x9b\x82\xef\x1dU\xc0'
p830
tp831
Rp832
aF34.045844756077024
asS'CROSS KEYS HIGH'
p833
(lp834
g3
(g7
S':\x04\xf1\x99\xc0\x15U\xc0'
p835
tp836
Rp837
aF33.84539489613146
asS'ML04A'
p838
(lp839
g3
(g7
S'\xffj\xa1j&\x13U\xc0'
p840
tp841
Rp842
aF34.10461976351026
asS'ML04B'
p843
(lp844
g3
(g7
S'\xe3\x93\x04\xf6\xca\x12U\xc0'
p845
tp846
Rp847
aF34.12810941981081
asS'ML04C'
p848
(lp849
g3
(g7
S'7\xb4\xfa\xcb\xe8\x11U\xc0'
p850
tp851
Rp852
aF34.111105742090636
asS'JC19'
p853
(lp854
g3
(g7
S'\xecy\x16w\xda\x10U\xc0'
p855
tp856
Rp857
aF34.00510273394041
asS'HUNTLEY HILLS ELEM'
p858
(lp859
g3
(g7
S'\x07\x08=\xa3X\x13U\xc0'
p860
tp861
Rp862
aF33.9142914008333
asS'ML05A'
p863
(lp864
g3
(g7
S'\x85s\xce\xe6\xdb\x11U\xc0'
p865
tp866
Rp867
aF34.100019528853935
asS'Davis 01'
p868
(lp869
g3
(g7
S'mc\xferM\x1eU\xc0'
p870
tp871
Rp872
aF34.06814933509374
asS'Fullers Park 01'
p873
(lp874
g3
(g7
S'Rf\xce\xb3F\x1dU\xc0'
p875
tp876
Rp877
aF33.97230836546146
asS'SS15A'
p878
(lp879
g3
(g7
S'\xe0\xc0\x9a^\x11\x16U\xc0'
p880
tp881
Rp882
aF33.99267018722259
asS'ASHFORD DUNWOODY RD'
p883
(lp884
g3
(g7
S'\x13\xa3\x8e\x91b\x15U\xc0'
p885
tp886
Rp887
aF33.88550756354322
asS'Pope 01'
p888
(lp889
g3
(g7
S'Im;\x8d\x14\x1dU\xc0'
p890
tp891
Rp892
aF34.028325031542
asS'Bells Ferry 02'
p893
(lp894
g3
(g7
S'\xb6\xd6\xcc\x8e\x85"U\xc0'
p895
tp896
Rp897
aF34.02760365351056
asS'Bells Ferry 03'
p898
(lp899
g3
(g7
S'\t\x8c\xb9\xbe\xc4"U\xc0'
p900
tp901
Rp902
aF34.06430428470234
asS'JC18'
p903
(lp904
g3
(g7
S'\xa4\xc3\xbbcx\x11U\xc0'
p905
tp906
Rp907
aF34.01462313708983
asS'Marietta 5A'
p908
(lp909
g3
(g7
S'\t\xf1g6\x99 U\xc0'
p910
tp911
Rp912
aF33.95782476836492
asS'RW02'
p913
(lp914
g3
(g7
S'\x03uV\xf9\x96\x18U\xc0'
p915
tp916
Rp917
aF34.017555258356104
asS'Blackwell 01'
p918
(lp919
g3
(g7
S'\xd0}\xf5\xeb\xcc!U\xc0'
p920
tp921
Rp922
aF34.043545296445984
asS'SS01'
p923
(lp924
g3
(g7
S'\xc1\xf5/\xd8\xdc\x12U\xc0'
p925
tp926
Rp927
aF33.972725309525565
asS'AP09B'
p928
(lp929
g3
(g7
S'\\\xcbD\xd0\x11\rU\xc0'
p930
tp931
Rp932
aF34.081266817849276
asS'AP09A'
p933
(lp934
g3
(g7
S'\x16"z6\x9c\x0eU\xc0'
p935
tp936
Rp937
aF34.069647605925
asS'Shallowford Fall 01'
p938
(lp939
g3
(g7
S'\x92\xc9\x10 Q\x1bU\xc0'
p940
tp941
Rp942
aF34.03822228478867
asS'RW22A'
p943
(lp944
g3
(g7
S'\xf1\x96\xfb\xb4[\x12U\xc0'
p945
tp946
Rp947
aF34.0056127590213
asS'Mount Bethel 04'
p948
(lp949
g3
(g7
S'C\n\xd1\xb1\x99\x1bU\xc0'
p950
tp951
Rp952
aF33.95076566526924
asS'Sewell Mill 01'
p953
(lp954
g3
(g7
S'_\x1d\xa8YS\x1eU\xc0'
p955
tp956
Rp957
aF33.98648669731889
asS'PEACHTREE MIDDLE'
p958
(lp959
g3
(g7
S'\xff\x10\xa2t\x89\x13U\xc0'
p960
tp961
Rp962
aF33.92813505427586
asS'Sewell Mill 03'
p963
(lp964
g3
(g7
S'\x05B\x03Y\xde\x1fU\xc0'
p965
tp966
Rp967
aF33.95725043317914
asS'MONTGOMERY ELEM'
p968
(lp969
g3
(g7
S'\xd8\x1d\xf2aR\x15U\xc0'
p970
tp971
Rp972
aF33.9122125927764
asS'Mount Bethel 01'
p973
(lp974
g3
(g7
S'\xd1\xd0b\x87_\x19U\xc0'
p975
tp976
Rp977
aF33.975920425185805
asS'Mount Bethel 03'
p978
(lp979
g3
(g7
S'\xe8]#\xb4\xe8\x19U\xc0'
p980
tp981
Rp982
aF33.958777354740405
asS'SS08C'
p983
(lp984
g3
(g7
S'I:\xa5\x0b;\x17U\xc0'
p985
tp986
Rp987
aF33.93161850444574
asS'Garrison Mill 01'
p988
(lp989
g3
(g7
S'&\x88\xa4\x94\x8a\x1cU\xc0'
p990
tp991
Rp992
aF34.04599515349085
asS'SS08A'
p993
(lp994
g3
(g7
S'\xb7\xc9z\xc7\xf7\x16U\xc0'
p995
tp996
Rp997
aF33.915413882922536
asS'SS29A'
p998
(lp999
g3
(g7
S'\xa5\x02,\x07\x96\x16U\xc0'
p1000
tp1001
Rp1002
aF33.945521826848676
asS'ML05C'
p1003
(lp1004
g3
(g7
S'\x1a\xd4\xe1\x95F\x11U\xc0'
p1005
tp1006
Rp1007
aF34.121130496690725
asS'ML05B'
p1008
(lp1009
g3
(g7
S'\x93<\xfb{\xe6\x11U\xc0'
p1010
tp1011
Rp1012
aF34.14617677877653
asS'DUNWOODY LIBRARY'
p1013
(lp1014
g3
(g7
S'\xc3\xbc\xa8\x8d\x9e\x15U\xc0'
p1015
tp1016
Rp1017
aF33.949392185233386
asS'SS08D'
p1018
(lp1019
g3
(g7
S'.%\xb9,\x9b\x16U\xc0'
p1020
tp1021
Rp1022
aF33.92648389636372
asS'AP01C'
p1023
(lp1024
g3
(g7
S'\xe5\xc3\xe7\x86\x03\x11U\xc0'
p1025
tp1026
Rp1027
aF34.04010859543158
asS'AP01B'
p1028
(lp1029
g3
(g7
S'M\xb5\xeeM%\x12U\xc0'
p1030
tp1031
Rp1032
aF34.064135956264224
asS'AP01A'
p1033
(lp1034
g3
(g7
S'\xabP\xa0\x80\xca\x10U\xc0'
p1035
tp1036
Rp1037
aF34.05494443236711
asS'TUCKER LIBRARY'
p1038
(lp1039
g3
(g7
S'\xdf\xdf7\x0f\xc2\rU\xc0'
p1040
tp1041
Rp1042
aF33.85545844422311
asS'AP01D'
p1043
(lp1044
g3
(g7
S'\x04\xbc\x885\xd2\x12U\xc0'
p1045
tp1046
Rp1047
aF34.040934846132316
as.